target datalayout = "e-m:e-p270:32:32-p271:32:32-p272:64:64-i64:64-i128:128-f80:128-n8:16:32:64-S128"
target triple = "x86_64-pc-linux-gnu"

; Function Attrs: nounwind uwtable
define i32 @dtls_post_encryption_processing(ptr noundef %0, i64 noundef %1, ptr noundef %2, ptr noundef %3, ptr noundef %4) #0 {
  %6 = alloca i32, align 4
  %7 = alloca ptr, align 8
  %8 = alloca i64, align 8
  %9 = alloca ptr, align 8
  %10 = alloca ptr, align 8
  %11 = alloca ptr, align 8
  store ptr %0, ptr %7, align 8, !tbaa !3
  store i64 %1, ptr %8, align 8, !tbaa !51
  store ptr %2, ptr %9, align 8, !tbaa !90
  store ptr %3, ptr %10, align 8, !tbaa !88
  store ptr %4, ptr %11, align 8, !tbaa !28
  %12 = load ptr, ptr %7, align 8, !tbaa !3
  %13 = load i64, ptr %8, align 8, !tbaa !51
  %14 = load ptr, ptr %9, align 8, !tbaa !90
  %15 = load ptr, ptr %10, align 8, !tbaa !88
  %16 = load ptr, ptr %11, align 8, !tbaa !28
  %17 = call i32 @tls_post_encryption_processing_default(ptr noundef %12, i64 noundef %13, ptr noundef %14, ptr noundef %15, ptr noundef %16)
  %18 = icmp ne i32 %17, 0
  br i1 %18, label %20, label %19

19:                                               ; preds = %5
  store i32 0, ptr %6, align 4
  br label %23

20:                                               ; preds = %5
  %21 = load ptr, ptr %7, align 8, !tbaa !3
  %22 = call i32 @tls_increment_sequence_ctr(ptr noundef %21)
  store i32 %22, ptr %6, align 4
  br label %23

23:                                               ; preds = %20, %19
  %24 = load i32, ptr %6, align 4
  ret i32 %24
}