; Function Attrs: nounwind uwtable
define i32 @dtls_post_encryption_processing(ptr noundef %0, i64 noundef %1, ptr noundef %2, ptr noundef %3, ptr noundef %4) local_unnamed_addr #0 {
  %6 = tail call i32 @tls_post_encryption_processing_default(ptr noundef %0, i64 noundef %1, ptr noundef %2, ptr noundef %3, ptr noundef %4) #7
  %.not = icmp eq i32 %6, 0
  br i1 %.not, label %9, label %7

7:                                                ; preds = %5
  %8 = tail call i32 @tls_increment_sequence_ctr(ptr noundef %0) #7
  br label %9

9:                                                ; preds = %5, %7
  %.0 = phi i32 [ %8, %7 ], [ 0, %5 ]
  ret i32 %.0
}